target datalayout = "e-m:e-p270:32:32-p271:32:32-p272:64:64-i64:64-i128:128-f80:128-n8:16:32:64-S128"
target triple = "x86_64-pc-linux-gnu"

@Abc_Random.m_z = internal global i32 -578006775, align 4
@Abc_Random.m_w = internal global i32 -2120863760, align 4

; Function Attrs: nounwind uwtable
define i32 @Abc_Random(i32 noundef %0) #0 {
  %2 = alloca i32, align 4
  store i32 %0, ptr %2, align 4
  %3 = load i32, ptr %2, align 4
  %4 = icmp ne i32 %3, 0
  br i1 %4, label %5, label %6

5:                                                ; preds = %1
  store i32 -578006775, ptr @Abc_Random.m_z, align 4
  store i32 -2120863760, ptr @Abc_Random.m_w, align 4
  br label %6

6:                                                ; preds = %5, %1
  %7 = load i32, ptr @Abc_Random.m_z, align 4
  %8 = and i32 %7, 65535
  %9 = mul i32 36969, %8
  %10 = load i32, ptr @Abc_Random.m_z, align 4
  %11 = lshr i32 %10, 16
  %12 = add i32 %9, %11
  store i32 %12, ptr @Abc_Random.m_z, align 4
  %13 = load i32, ptr @Abc_Random.m_w, align 4
  %14 = and i32 %13, 65535
  %15 = mul i32 18000, %14
  %16 = load i32, ptr @Abc_Random.m_w, align 4
  %17 = lshr i32 %16, 16
  %18 = add i32 %15, %17
  store i32 %18, ptr @Abc_Random.m_w, align 4
  %19 = load i32, ptr @Abc_Random.m_z, align 4
  %20 = shl i32 %19, 16
  %21 = load i32, ptr @Abc_Random.m_w, align 4
  %22 = add i32 %20, %21
  ret i32 %22
}

; Function Attrs: nounwind uwtable
define i64 @Abc_RandomW(i32 noundef %0) #0 {
  %2 = alloca i32, align 4
  store i32 %0, ptr %2, align 4
  %3 = load i32, ptr %2, align 4
  %4 = call i32 @Abc_Random(i32 noundef %3)
  %5 = zext i32 %4 to i64
  %6 = shl i64 %5, 32
  %7 = load i32, ptr %2, align 4
  %8 = call i32 @Abc_Random(i32 noundef %7)
  %9 = zext i32 %8 to i64
  %10 = shl i64 %9, 0
  %11 = or i64 %6, %10
  ret i64 %11
}