; Function Attrs: mustprogress nofree norecurse nosync nounwind willreturn memory(readwrite, argmem: none, inaccessiblemem: none) uwtable
define i64 @Abc_RandomW(i32 noundef %0) local_unnamed_addr #12 {
  %.not.i = icmp eq i32 %0, 0
  %.pre.i = load i32, ptr @Abc_Random.m_z, align 4
  %.pre1.i = load i32, ptr @Abc_Random.m_w, align 4
  %2 = select i1 %.not.i, i32 %.pre1.i, i32 -2120863760
  %3 = select i1 %.not.i, i32 %.pre.i, i32 -578006775
  %4 = and i32 %3, 65535
  %5 = mul nuw i32 %4, 36969
  %6 = lshr i32 %3, 16
  %7 = add nuw i32 %5, %6
  %8 = and i32 %2, 65535
  %9 = mul nuw nsw i32 %8, 18000
  %10 = lshr i32 %2, 16
  %11 = add nuw nsw i32 %9, %10
  %12 = shl i32 %7, 16
  %13 = add i32 %11, %12
  %14 = zext i32 %13 to i64
  %15 = shl nuw i64 %14, 32
  %16 = select i1 %.not.i, i32 %11, i32 -2120863760
  %17 = select i1 %.not.i, i32 %7, i32 -578006775
  %18 = and i32 %17, 65535
  %19 = mul nuw i32 %18, 36969
  %20 = lshr i32 %17, 16
  %21 = add nuw i32 %19, %20
  store i32 %21, ptr @Abc_Random.m_z, align 4
  %22 = and i32 %16, 65535
  %23 = mul nuw nsw i32 %22, 18000
  %24 = lshr i32 %16, 16
  %25 = add nuw nsw i32 %23, %24
  store i32 %25, ptr @Abc_Random.m_w, align 4
  %26 = shl i32 %21, 16
  %27 = add i32 %25, %26
  %28 = zext i32 %27 to i64
  %29 = or disjoint i64 %15, %28
  ret i64 %29
}